; Function Attrs: mustprogress nounwind uwtable
define void @_ZN3zmq11io_thread_tD2Ev(ptr noundef nonnull align 8 dereferenceable(224) %this) unnamed_addr #6 align 2 {
entry:
  %_poller = getelementptr inbounds i8, ptr %this, i64 216
  %0 = load ptr, ptr %_poller, align 8
  %isnull = icmp eq ptr %0, null
  br i1 %isnull, label %delete.end, label %delete.notnull

delete.notnull:                                   ; preds = %entry
  tail call void @_ZN3zmq7epoll_tD1Ev(ptr noundef nonnull align 8 dereferenceable(224) %0) #15
  tail call void @_ZdlPv(ptr noundef nonnull %0) #14
  br label %delete.end

delete.end:                                       ; preds = %delete.notnull, %entry
  store ptr null, ptr %_poller, align 8
  %_mailbox = getelementptr inbounds i8, ptr %this, i64 32
  tail call void @_ZN3zmq9mailbox_tD1Ev(ptr noundef nonnull align 8 dereferenceable(176) %_mailbox) #15
  tail call void @_ZN3zmq8object_tD2Ev(ptr noundef nonnull align 8 dereferenceable(20) %this) #15
  ret void
}